Certificate:
    Data:
        Version: 3 (0x2)
        Serial Number:
            91:4b:b3:22:b2:04:96:12
    Signature Algorithm: sha256WithRSAEncryption
        Issuer: CN=QUIC Server Root CA
        Validity
            Not Before: Oct 19 14:16:55 2016 GMT
            Not After : Oct 22 14:16:55 2016 GMT
        Subject: CN=QUIC Server Root CA
        Subject Public Key Info:
            Public Key Algorithm: rsaEncryption
                Public-Key: (2048 bit)
                Modulus:
                    00:e2:0f:00:0d:06:ef:27:3b:9f:bb:5b:c4:e7:88:
                    35:31:fe:38:f0:be:de:42:7b:e7:e1:ab:89:45:e2:
                    85:d7:63:c3:4e:51:67:39:b3:36:e8:30:b6:92:71:
                    12:be:29:14:60:02:b5:fb:3f:78:7e:3e:37:ec:93:
                    22:25:40:6b:b2:68:81:a0:58:42:45:08:7f:43:e6:
                    35:a0:d3:f8:14:99:44:c5:1e:4a:40:2a:6c:e5:37:
                    33:a9:3b:7b:69:a3:35:7d:86:f6:cf:71:43:0e:1c:
                    d4:a2:5f:90:ac:d0:a5:bb:9b:f1:26:4f:9c:cf:06:
                    9c:43:12:c7:55:e5:d6:2f:10:e4:34:f3:78:ab:b7:
                    f9:7b:b1:85:ba:00:2a:20:b0:3f:d5:00:a1:0a:9d:
                    83:8e:d4:97:e5:53:7c:e6:4e:5a:15:a1:35:ae:93:
                    8f:6f:c5:fa:62:00:8f:12:c5:b6:3b:2d:66:57:40:
                    fb:62:57:8a:98:13:62:d8:ca:10:ea:68:ad:0c:a7:
                    f8:81:e0:66:9f:c1:7f:42:ee:07:31:f8:41:8c:bc:
                    04:5f:47:c2:9a:bd:09:98:59:3c:b0:93:bc:f7:26:
                    7f:37:4a:7a:fd:91:5c:c3:78:89:e7:68:f1:fb:df:
                    06:78:9d:0f:c4:c9:6e:f6:41:e1:70:b8:f3:da:c8:
                    24:c9
                Exponent: 65537 (0x10001)
        X509v3 extensions:
            X509v3 Basic Constraints: critical
                CA:TRUE
            X509v3 Subject Key Identifier: 
                C9:7F:78:B2:24:4C:5B:86:EE:A6:56:AE:9B:B0:F1:5E:73:5E:1A:3A
            X509v3 Key Usage: critical
                Certificate Sign, CRL Sign
    Signature Algorithm: sha256WithRSAEncryption
         95:0d:ef:cc:53:54:fb:f0:a5:78:7e:a8:32:be:79:b5:6c:9b:
         6f:8b:d1:76:6f:73:22:ad:63:2a:b6:aa:98:fc:ed:80:10:66:
         0f:15:f5:1b:37:68:a1:fa:fe:6e:78:ed:4f:c6:3c:55:fc:b0:
         8e:5f:80:58:6b:1f:cb:24:3d:98:5c:b8:6e:39:27:cf:57:fc:
         d1:ab:6e:49:3e:f4:16:66:6d:89:c2:5c:a1:2f:b0:50:ec:0c:
         19:92:4c:b4:72:39:bf:3e:b9:a6:0e:0a:3c:c9:25:68:a9:0b:
         37:d5:2b:e1:30:cf:23:cb:18:07:7a:27:89:e1:5e:1e:b6:c2:
         4b:93:7f:da:d9:37:a5:c8:d3:d4:24:5c:77:da:68:62:3c:9e:
         33:ed:d2:a9:37:cb:60:18:d1:90:de:44:b3:57:c2:37:86:d5:
         1f:3c:0a:d6:c4:34:81:45:d3:e3:81:73:cb:67:4a:03:17:dc:
         2a:e2:97:96:a7:58:e1:37:02:74:36:d4:50:7e:1c:c0:c5:fe:
         fd:31:9a:00:c5:48:44:55:d6:03:e0:f7:b4:e5:ff:85:12:7d:
         d3:48:44:10:22:ea:fd:d2:71:55:61:e7:72:d9:9d:69:5a:84:
         2b:65:ff:0e:c7:58:1a:51:74:bb:5d:4c:fd:3b:6e:8e:3d:3f:
         c9:85:41:04
-----BEGIN CERTIFICATE-----
MIIDATCCAemgAwIBAgIJAJFLsyKyBJYSMA0GCSqGSIb3DQEBCwUAMB4xHDAaBgNV
BAMME1FVSUMgU2VydmVyIFJvb3QgQ0EwHhcNMTYxMDE5MTQxNjU1WhcNMTYxMDIy
MTQxNjU1WjAeMRwwGgYDVQQDDBNRVUlDIFNlcnZlciBSb290IENBMIIBIjANBgkq
hkiG9w0BAQEFAAOCAQ8AMIIBCgKCAQEA4g8ADQbvJzufu1vE54g1Mf448L7eQnvn
4auJReKF12PDTlFnObM26DC2knESvikUYAK1+z94fj437JMiJUBrsmiBoFhCRQh/
Q+Y1oNP4FJlExR5KQCps5TczqTt7aaM1fYb2z3FDDhzUol+QrNClu5vxJk+czwac
QxLHVeXWLxDkNPN4q7f5e7GFugAqILA/1QChCp2DjtSX5VN85k5aFaE1rpOPb8X6
YgCPEsW2Oy1mV0D7YleKmBNi2MoQ6mitDKf4geBmn8F/Qu4HMfhBjLwEX0fCmr0J
mFk8sJO89yZ/N0p6/ZFcw3iJ52jx+98GeJ0PxMlu9kHhcLjz2sgkyQIDAQABo0Iw
QDAPBgNVHRMBAf8EBTADAQH/MB0GA1UdDgQWBBTJf3iyJExbhu6mVq6bsPFec14a
OjAOBgNVHQ8BAf8EBAMCAQYwDQYJKoZIhvcNAQELBQADggEBAJUN78xTVPvwpXh+
qDK+ebVsm2+L0XZvcyKtYyq2qpj87YAQZg8V9Rs3aKH6/m547U/GPFX8sI5fgFhr
H8skPZhcuG45J89X/NGrbkk+9BZmbYnCXKEvsFDsDBmSTLRyOb8+uaYOCjzJJWip
CzfVK+EwzyPLGAd6J4nhXh62wkuTf9rZN6XI09QkXHfaaGI8njPt0qk3y2AY0ZDe
RLNXwjeG1R88CtbENIFF0+OBc8tnSgMX3Cril5anWOE3AnQ21FB+HMDF/v0xmgDF
SERV1gPg97Tl/4USfdNIRBAi6v3ScVVh53LZnWlahCtl/w7HWBpRdLtdTP07bo49
P8mFQQQ=
-----END CERTIFICATE-----
