Certificate:
    Data:
        Version: 3 (0x2)
        Serial Number: 1 (0x1)
    Signature Algorithm: sha256WithRSAEncryption
        Issuer: CN=QUIC Server Root CA
        Validity
            Not Before: Oct 19 14:16:55 2016 GMT
            Not After : Oct 22 14:16:55 2016 GMT
        Subject: C=US, ST=California, L=Mountain View, O=QUIC Server, CN=127.0.0.1
        Subject Public Key Info:
            Public Key Algorithm: rsaEncryption
                Public-Key: (2048 bit)
                Modulus:
                    00:9a:76:8f:a2:7b:2c:ab:ab:20:d1:9f:78:82:9d:
                    aa:9f:1f:65:7d:6e:58:ff:9a:62:54:b3:5b:ba:2e:
                    ca:5c:99:27:ed:89:f3:d6:3d:f7:d1:2c:4a:70:c2:
                    7f:35:7d:e2:3d:8e:88:1e:b8:46:69:cc:36:d3:6f:
                    36:0b:02:64:19:ba:00:29:fb:33:3c:65:52:dd:16:
                    ab:64:fb:37:de:99:e9:97:5d:76:07:5a:68:74:72:
                    ea:53:f1:05:bf:f1:5a:f3:2b:8a:2a:36:52:a0:b2:
                    41:bb:12:c0:bf:9c:99:8e:45:aa:02:30:f4:5d:24:
                    d4:f1:48:99:1c:43:92:75:ca:54:cd:0a:66:b5:e4:
                    02:53:fc:af:4e:45:67:c0:77:0e:11:f8:fa:8e:e4:
                    4e:fe:6f:f7:08:69:9d:43:0f:2b:41:1f:3d:b8:ba:
                    73:4c:7c:ab:98:b1:8f:b1:2f:21:b4:95:c0:1c:cf:
                    01:16:ff:e3:8f:74:57:38:42:dc:5d:40:79:82:44:
                    2c:83:e1:f2:c4:d0:95:a0:69:09:a5:65:47:82:94:
                    17:09:e7:55:10:82:32:9a:95:50:7f:5f:7f:29:27:
                    73:49:3b:5c:4f:ad:2d:62:db:81:0d:c9:db:31:d0:
                    ff:66:49:fd:0d:86:bc:eb:1e:ba:95:e2:10:5e:2b:
                    5c:97
                Exponent: 65537 (0x10001)
        X509v3 extensions:
            X509v3 Basic Constraints: critical
                CA:FALSE
            X509v3 Subject Key Identifier: 
                54:B6:06:1A:A3:2F:7A:C2:13:32:F5:AB:EC:94:1F:F7:78:A5:69:A0
            X509v3 Authority Key Identifier: 
                keyid:C9:7F:78:B2:24:4C:5B:86:EE:A6:56:AE:9B:B0:F1:5E:73:5E:1A:3A

            X509v3 Extended Key Usage: 
                TLS Web Server Authentication, TLS Web Client Authentication
            X509v3 Subject Alternative Name: 
                DNS:www.example.org, DNS:mail.example.org, DNS:mail.example.com, IP Address:127.0.0.1
    Signature Algorithm: sha256WithRSAEncryption
         49:28:d3:54:b1:a0:2d:78:ff:96:8a:97:5d:02:24:ab:11:76:
         84:aa:2e:2c:1a:3f:30:dc:ce:a7:d0:33:04:52:9e:b0:f3:11:
         6c:b7:f4:01:b0:e6:9c:e6:ca:96:7b:98:ea:2f:d7:58:c0:b5:
         aa:bb:a8:a6:a0:27:81:e8:68:29:f1:ec:36:31:60:e3:18:c6:
         1c:87:37:8d:8a:b5:db:50:34:25:1c:31:90:f0:73:e0:c0:29:
         ef:67:61:2c:21:05:d0:e6:3f:e0:ac:ac:13:f1:a7:fb:68:1f:
         f0:9d:18:a8:cf:18:14:bc:05:67:29:c5:18:4e:ad:d7:3b:9e:
         2b:58:bc:c0:82:bf:e2:3c:e2:2c:e5:dc:c4:df:0e:ca:ed:1b:
         22:73:8a:47:15:ae:c5:90:5e:52:fb:26:27:8e:ca:da:91:7b:
         b9:dd:6f:6d:43:44:ec:38:33:bf:dc:6b:f5:21:89:a4:a7:52:
         1b:3c:27:67:98:2c:69:43:e8:71:6c:6a:80:dd:1e:d6:26:c6:
         77:39:3a:f4:46:cd:e3:1f:6e:71:2b:3e:b0:9d:9f:5d:bc:a9:
         f9:9b:dc:07:ac:c4:e0:f5:f0:b7:96:41:ef:16:3c:d2:03:31:
         41:e7:38:fd:5d:29:73:b0:77:b4:b0:46:4d:a1:a3:8d:e6:11:
         27:1f:e8:0a
-----BEGIN CERTIFICATE-----
MIIDtDCCApygAwIBAgIBATANBgkqhkiG9w0BAQsFADAeMRwwGgYDVQQDDBNRVUlD
IFNlcnZlciBSb290IENBMB4XDTE2MTAxOTE0MTY1NVoXDTE2MTAyMjE0MTY1NVow
ZDELMAkGA1UEBhMCVVMxEzARBgNVBAgMCkNhbGlmb3JuaWExFjAUBgNVBAcMDU1v
dW50YWluIFZpZXcxFDASBgNVBAoMC1FVSUMgU2VydmVyMRIwEAYDVQQDDAkxMjcu
MC4wLjEwggEiMA0GCSqGSIb3DQEBAQUAA4IBDwAwggEKAoIBAQCado+ieyyrqyDR
n3iCnaqfH2V9blj/mmJUs1u6LspcmSftifPWPffRLEpwwn81feI9jogeuEZpzDbT
bzYLAmQZugAp+zM8ZVLdFqtk+zfememXXXYHWmh0cupT8QW/8VrzK4oqNlKgskG7
EsC/nJmORaoCMPRdJNTxSJkcQ5J1ylTNCma15AJT/K9ORWfAdw4R+PqO5E7+b/cI
aZ1DDytBHz24unNMfKuYsY+xLyG0lcAczwEW/+OPdFc4QtxdQHmCRCyD4fLE0JWg
aQmlZUeClBcJ51UQgjKalVB/X38pJ3NJO1xPrS1i24ENydsx0P9mSf0NhrzrHrqV
4hBeK1yXAgMBAAGjgbYwgbMwDAYDVR0TAQH/BAIwADAdBgNVHQ4EFgQUVLYGGqMv
esITMvWr7JQf93ilaaAwHwYDVR0jBBgwFoAUyX94siRMW4buplaum7DxXnNeGjow
HQYDVR0lBBYwFAYIKwYBBQUHAwEGCCsGAQUFBwMCMEQGA1UdEQQ9MDuCD3d3dy5l
eGFtcGxlLm9yZ4IQbWFpbC5leGFtcGxlLm9yZ4IQbWFpbC5leGFtcGxlLmNvbYcE
fwAAATANBgkqhkiG9w0BAQsFAAOCAQEASSjTVLGgLXj/loqXXQIkqxF2hKouLBo/
MNzOp9AzBFKesPMRbLf0AbDmnObKlnuY6i/XWMC1qruopqAngehoKfHsNjFg4xjG
HIc3jYq121A0JRwxkPBz4MAp72dhLCEF0OY/4KysE/Gn+2gf8J0YqM8YFLwFZynF
GE6t1zueK1i8wIK/4jziLOXcxN8Oyu0bInOKRxWuxZBeUvsmJ47K2pF7ud1vbUNE
7Dgzv9xr9SGJpKdSGzwnZ5gsaUPocWxqgN0e1ibGdzk69EbN4x9ucSs+sJ2fXbyp
+ZvcB6zE4PXwt5ZB7xY80gMxQec4/V0pc7B3tLBGTaGjjeYRJx/oCg==
-----END CERTIFICATE-----
